target datalayout = "e-m:e-p270:32:32-p271:32:32-p272:64:64-i64:64-i128:128-f80:128-n8:16:32:64-S128"
target triple = "x86_64-pc-linux-gnu"

%struct.WOLFSSL = type <{ ptr, ptr, ptr, ptr, [48 x i8], [48 x i8], ptr, ptr, ptr, ptr, ptr, ptr, ptr, ptr, ptr, ptr, ptr, ptr, ptr, i32, [4 x i8], %struct.WOLFSSL_CIPHER, ptr, %struct.Ciphers, %struct.Ciphers, [8 x i8], %struct.Buffers, ptr, ptr, %struct.WOLFSSL_ALERT_HISTORY, %struct.WOLFSSL_ALERT, i32, i32, i32, i32, i32, i32, i32, i16, [2 x i8], i32, i8, %struct.RecordLayerHeader, %struct.MsgsReceived, %struct.ProtocolVersion, %struct.ProtocolVersion, %struct.CipherSpecs, [2 x i8], %struct.Keys, %struct.Options, ptr, i8, i8, i16, [10 x i16], i8, i8, i16, i16, [38 x i8], i32, i32, [4 x i8], ptr, i8, i8, [6 x i8], ptr, ptr, i16, i8, i8, i32, i8, [3 x i8], i32, %struct.OneTimeAuth, ptr }>
%struct.WOLFSSL_CIPHER = type { i8, i8, ptr }
%struct.Ciphers = type { ptr, ptr, ptr, ptr, i8, i8 }
%struct.Buffers = type { %struct.bufferStatic, %struct.bufferStatic, %struct.WOLFSSL_BUFFER_INFO, %struct.WOLFSSL_BUFFER_INFO, %struct.WOLFSSL_BUFFER_INFO, %struct.WOLFSSL_BUFFER_INFO, i32, i32, i8, i8, i8, i8, %struct.WOLFSSL_BUFFER_INFO, %struct.WOLFSSL_BUFFER_INFO, %struct.WOLFSSL_BUFFER_INFO, %struct.WOLFSSL_BUFFER_INFO, ptr, ptr, ptr, i8, i8, i32, i32, ptr, i32, [1 x ptr] }
%struct.bufferStatic = type { [5 x i8], ptr, i32, i32, i32, i8, i8 }
%struct.WOLFSSL_BUFFER_INFO = type { ptr, i32 }
%struct.WOLFSSL_ALERT_HISTORY = type { %struct.WOLFSSL_ALERT, %struct.WOLFSSL_ALERT }
%struct.WOLFSSL_ALERT = type { i32, i32 }
%struct.RecordLayerHeader = type { i8, i8, i8, [2 x i8] }
%struct.MsgsReceived = type { i32 }
%struct.ProtocolVersion = type { i8, i8 }
%struct.CipherSpecs = type { i16, i16, i16, i16, i8, i8, i8, i8, i8, i8, i8, i8 }
%struct.Keys = type { [64 x i8], [64 x i8], [32 x i8], [32 x i8], [16 x i8], [16 x i8], [8 x i8], [12 x i8], [12 x i8], i32, i32, i32, i32, i32, i32, i8, i8, i8, i8 }
%struct.Options = type { i64, i64, i8, i8, i8, i8, i8, i8, i8, i8, i8, i8, i8, i8, i8, i8, i8, i8, i8, i8, i8, i8, i8, i16, i16, i16, i16, i16, i8 }
%struct.OneTimeAuth = type { ptr, i8 }
%struct.wc_Sha512 = type { [8 x i64], [16 x i64], i32, i64, i64, ptr }
%union.Digest = type { %struct.wc_Sha512 }

@tls13ProtocolLabel = internal constant [7 x i8] c"tls13 \00", align 1

; Function Attrs: nounwind uwtable
define internal i32 @Tls13HKDFExpandLabel(ptr noundef %0, ptr noundef %1, i32 noundef %2, ptr noundef %3, i32 noundef %4, ptr noundef %5, i32 noundef %6, ptr noundef %7, i32 noundef %8, ptr noundef %9, i32 noundef %10, i32 noundef %11) #0 {
  %13 = alloca ptr, align 8
  %14 = alloca ptr, align 8
  %15 = alloca i32, align 4
  %16 = alloca ptr, align 8
  %17 = alloca i32, align 4
  %18 = alloca ptr, align 8
  %19 = alloca i32, align 4
  %20 = alloca ptr, align 8
  %21 = alloca i32, align 4
  %22 = alloca ptr, align 8
  %23 = alloca i32, align 4
  %24 = alloca i32, align 4
  %25 = alloca i32, align 4
  store ptr %0, ptr %13, align 8, !tbaa !3
  store ptr %1, ptr %14, align 8, !tbaa !8
  store i32 %2, ptr %15, align 4, !tbaa !10
  store ptr %3, ptr %16, align 8, !tbaa !8
  store i32 %4, ptr %17, align 4, !tbaa !10
  store ptr %5, ptr %18, align 8, !tbaa !8
  store i32 %6, ptr %19, align 4, !tbaa !10
  store ptr %7, ptr %20, align 8, !tbaa !8
  store i32 %8, ptr %21, align 4, !tbaa !10
  store ptr %9, ptr %22, align 8, !tbaa !8
  store i32 %10, ptr %23, align 4, !tbaa !10
  store i32 %11, ptr %24, align 4, !tbaa !10
  call void @llvm.lifetime.start.p0(i64 4, ptr %25) #8
  store i32 -174, ptr %25, align 4, !tbaa !10
  br label %26

26:                                               ; preds = %12
  br label %27

27:                                               ; preds = %26
  br label %28

28:                                               ; preds = %27
  %29 = load ptr, ptr %14, align 8, !tbaa !8
  %30 = load i32, ptr %15, align 4, !tbaa !10
  %31 = load ptr, ptr %16, align 8, !tbaa !8
  %32 = load i32, ptr %17, align 4, !tbaa !10
  %33 = load ptr, ptr %18, align 8, !tbaa !8
  %34 = load i32, ptr %19, align 4, !tbaa !10
  %35 = load ptr, ptr %20, align 8, !tbaa !8
  %36 = load i32, ptr %21, align 4, !tbaa !10
  %37 = load ptr, ptr %22, align 8, !tbaa !8
  %38 = load i32, ptr %23, align 4, !tbaa !10
  %39 = load i32, ptr %24, align 4, !tbaa !10
  %40 = load ptr, ptr %13, align 8, !tbaa !3
  %41 = getelementptr inbounds nuw %struct.WOLFSSL, ptr %40, i32 0, i32 12
  %42 = load ptr, ptr %41, align 16, !tbaa !46
  %43 = load ptr, ptr %13, align 8, !tbaa !3
  %44 = getelementptr inbounds nuw %struct.WOLFSSL, ptr %43, i32 0, i32 75
  %45 = load i32, ptr %44, align 4, !tbaa !47
  %46 = call i32 @wc_Tls13_HKDF_Expand_Label_ex(ptr noundef %29, i32 noundef %30, ptr noundef %31, i32 noundef %32, ptr noundef %33, i32 noundef %34, ptr noundef %35, i32 noundef %36, ptr noundef %37, i32 noundef %38, i32 noundef %39, ptr noundef %42, i32 noundef %45)
  store i32 %46, ptr %25, align 4, !tbaa !10
  br label %47

47:                                               ; preds = %28
  br label %48

48:                                               ; preds = %47
  br label %49

49:                                               ; preds = %48
  %50 = load i32, ptr %25, align 4, !tbaa !10
  call void @llvm.lifetime.end.p0(i64 4, ptr %25) #8
  ret i32 %50
}

; Function Attrs: nounwind uwtable
define internal i32 @DeriveKeyMsg(ptr noundef %0, ptr noundef %1, i32 noundef %2, ptr noundef %3, ptr noundef %4, i32 noundef %5, ptr noundef %6, i32 noundef %7, i32 noundef %8) #0 {
  %10 = alloca i32, align 4
  %11 = alloca ptr, align 8
  %12 = alloca ptr, align 8
  %13 = alloca i32, align 4
  %14 = alloca ptr, align 8
  %15 = alloca ptr, align 8
  %16 = alloca i32, align 4
  %17 = alloca ptr, align 8
  %18 = alloca i32, align 4
  %19 = alloca i32, align 4
  %20 = alloca [64 x i8], align 16
  %21 = alloca %union.Digest, align 16
  %22 = alloca i32, align 4
  %23 = alloca ptr, align 8
  %24 = alloca i32, align 4
  %25 = alloca i32, align 4
  %26 = alloca i32, align 4
  %27 = alloca i32, align 4
  store ptr %0, ptr %11, align 8, !tbaa !3
  store ptr %1, ptr %12, align 8, !tbaa !8
  store i32 %2, ptr %13, align 4, !tbaa !10
  store ptr %3, ptr %14, align 8, !tbaa !8
  store ptr %4, ptr %15, align 8, !tbaa !8
  store i32 %5, ptr %16, align 4, !tbaa !10
  store ptr %6, ptr %17, align 8, !tbaa !8
  store i32 %7, ptr %18, align 4, !tbaa !10
  store i32 %8, ptr %19, align 4, !tbaa !10
  call void @llvm.lifetime.start.p0(i64 64, ptr %20) #8
  call void @llvm.lifetime.start.p0(i64 224, ptr %21) #8
  call void @llvm.lifetime.start.p0(i64 4, ptr %22) #8
  store i32 0, ptr %22, align 4, !tbaa !10
  call void @llvm.lifetime.start.p0(i64 8, ptr %23) #8
  call void @llvm.lifetime.start.p0(i64 4, ptr %24) #8
  call void @llvm.lifetime.start.p0(i64 4, ptr %25) #8
  store i32 -1, ptr %25, align 4, !tbaa !10
  call void @llvm.lifetime.start.p0(i64 4, ptr %26) #8
  store i32 -173, ptr %26, align 4, !tbaa !10
  %28 = load i32, ptr %19, align 4, !tbaa !10
  switch i32 %28, label %71 [
    i32 4, label %29
    i32 5, label %50
  ]

29:                                               ; preds = %9
  %30 = load ptr, ptr %11, align 8, !tbaa !3
  %31 = getelementptr inbounds nuw %struct.WOLFSSL, ptr %30, i32 0, i32 12
  %32 = load ptr, ptr %31, align 16, !tbaa !46
  %33 = load ptr, ptr %11, align 8, !tbaa !3
  %34 = getelementptr inbounds nuw %struct.WOLFSSL, ptr %33, i32 0, i32 75
  %35 = load i32, ptr %34, align 4, !tbaa !47
  %36 = call i32 @wc_InitSha256_ex(ptr noundef %21, ptr noundef %32, i32 noundef %35)
  store i32 %36, ptr %26, align 4, !tbaa !10
  %37 = load i32, ptr %26, align 4, !tbaa !10
  %38 = icmp eq i32 %37, 0
  br i1 %38, label %39, label %49

39:                                               ; preds = %29
  %40 = load ptr, ptr %17, align 8, !tbaa !8
  %41 = load i32, ptr %18, align 4, !tbaa !10
  %42 = call i32 @wc_Sha256Update(ptr noundef %21, ptr noundef %40, i32 noundef %41)
  store i32 %42, ptr %26, align 4, !tbaa !10
  %43 = load i32, ptr %26, align 4, !tbaa !10
  %44 = icmp eq i32 %43, 0
  br i1 %44, label %45, label %48

45:                                               ; preds = %39
  %46 = getelementptr inbounds [64 x i8], ptr %20, i64 0, i64 0
  %47 = call i32 @wc_Sha256Final(ptr noundef %21, ptr noundef %46)
  store i32 %47, ptr %26, align 4, !tbaa !10
  br label %48

48:                                               ; preds = %45, %39
  call void @wc_Sha256Free(ptr noundef %21)
  br label %49

49:                                               ; preds = %48, %29
  store i32 32, ptr %22, align 4, !tbaa !10
  store i32 6, ptr %25, align 4, !tbaa !10
  br label %72

50:                                               ; preds = %9
  %51 = load ptr, ptr %11, align 8, !tbaa !3
  %52 = getelementptr inbounds nuw %struct.WOLFSSL, ptr %51, i32 0, i32 12
  %53 = load ptr, ptr %52, align 16, !tbaa !46
  %54 = load ptr, ptr %11, align 8, !tbaa !3
  %55 = getelementptr inbounds nuw %struct.WOLFSSL, ptr %54, i32 0, i32 75
  %56 = load i32, ptr %55, align 4, !tbaa !47
  %57 = call i32 @wc_InitSha384_ex(ptr noundef %21, ptr noundef %53, i32 noundef %56)
  store i32 %57, ptr %26, align 4, !tbaa !10
  %58 = load i32, ptr %26, align 4, !tbaa !10
  %59 = icmp eq i32 %58, 0
  br i1 %59, label %60, label %70

60:                                               ; preds = %50
  %61 = load ptr, ptr %17, align 8, !tbaa !8
  %62 = load i32, ptr %18, align 4, !tbaa !10
  %63 = call i32 @wc_Sha384Update(ptr noundef %21, ptr noundef %61, i32 noundef %62)
  store i32 %63, ptr %26, align 4, !tbaa !10
  %64 = load i32, ptr %26, align 4, !tbaa !10
  %65 = icmp eq i32 %64, 0
  br i1 %65, label %66, label %69

66:                                               ; preds = %60
  %67 = getelementptr inbounds [64 x i8], ptr %20, i64 0, i64 0
  %68 = call i32 @wc_Sha384Final(ptr noundef %21, ptr noundef %67)
  store i32 %68, ptr %26, align 4, !tbaa !10
  br label %69

69:                                               ; preds = %66, %60
  call void @wc_Sha384Free(ptr noundef %21)
  br label %70

70:                                               ; preds = %69, %50
  store i32 48, ptr %22, align 4, !tbaa !10
  store i32 7, ptr %25, align 4, !tbaa !10
  br label %72

71:                                               ; preds = %9
  store i32 -173, ptr %26, align 4, !tbaa !10
  store i32 -1, ptr %25, align 4, !tbaa !10
  br label %72

72:                                               ; preds = %71, %70, %49
  %73 = load i32, ptr %25, align 4, !tbaa !10
  %74 = icmp slt i32 %73, 0
  br i1 %74, label %75, label %76

75:                                               ; preds = %72
  store i32 -232, ptr %10, align 4
  store i32 1, ptr %27, align 4
  br label %109

76:                                               ; preds = %72
  %77 = load i32, ptr %26, align 4, !tbaa !10
  %78 = icmp ne i32 %77, 0
  br i1 %78, label %79, label %81

79:                                               ; preds = %76
  %80 = load i32, ptr %26, align 4, !tbaa !10
  store i32 %80, ptr %10, align 4
  store i32 1, ptr %27, align 4
  br label %109

81:                                               ; preds = %76
  %82 = load ptr, ptr %11, align 8, !tbaa !3
  %83 = getelementptr inbounds nuw %struct.WOLFSSL, ptr %82, i32 0, i32 44
  %84 = getelementptr inbounds nuw %struct.ProtocolVersion, ptr %83, i32 0, i32 1
  %85 = load i8, ptr %84, align 1, !tbaa !54
  %86 = zext i8 %85 to i32
  switch i32 %86, label %88 [
    i32 4, label %87
  ]

87:                                               ; preds = %81
  store ptr @tls13ProtocolLabel, ptr %23, align 8, !tbaa !8
  store i32 6, ptr %24, align 4, !tbaa !10
  br label %89

88:                                               ; preds = %81
  store i32 -326, ptr %10, align 4
  store i32 1, ptr %27, align 4
  br label %109

89:                                               ; preds = %87
  %90 = load i32, ptr %13, align 4, !tbaa !10
  %91 = icmp eq i32 %90, -1
  br i1 %91, label %92, label %94

92:                                               ; preds = %89
  %93 = load i32, ptr %22, align 4, !tbaa !10
  store i32 %93, ptr %13, align 4, !tbaa !10
  br label %94

94:                                               ; preds = %92, %89
  %95 = load ptr, ptr %11, align 8, !tbaa !3
  %96 = load ptr, ptr %12, align 8, !tbaa !8
  %97 = load i32, ptr %13, align 4, !tbaa !10
  %98 = load ptr, ptr %14, align 8, !tbaa !8
  %99 = load i32, ptr %22, align 4, !tbaa !10
  %100 = load ptr, ptr %23, align 8, !tbaa !8
  %101 = load i32, ptr %24, align 4, !tbaa !10
  %102 = load ptr, ptr %15, align 8, !tbaa !8
  %103 = load i32, ptr %16, align 4, !tbaa !10
  %104 = getelementptr inbounds [64 x i8], ptr %20, i64 0, i64 0
  %105 = load i32, ptr %22, align 4, !tbaa !10
  %106 = load i32, ptr %25, align 4, !tbaa !10
  %107 = call i32 @Tls13HKDFExpandLabel(ptr noundef %95, ptr noundef %96, i32 noundef %97, ptr noundef %98, i32 noundef %99, ptr noundef %100, i32 noundef %101, ptr noundef %102, i32 noundef %103, ptr noundef %104, i32 noundef %105, i32 noundef %106)
  store i32 %107, ptr %26, align 4, !tbaa !10
  %108 = load i32, ptr %26, align 4, !tbaa !10
  store i32 %108, ptr %10, align 4
  store i32 1, ptr %27, align 4
  br label %109

109:                                              ; preds = %94, %88, %79, %75
  call void @llvm.lifetime.end.p0(i64 4, ptr %26) #8
  call void @llvm.lifetime.end.p0(i64 4, ptr %25) #8
  call void @llvm.lifetime.end.p0(i64 4, ptr %24) #8
  call void @llvm.lifetime.end.p0(i64 8, ptr %23) #8
  call void @llvm.lifetime.end.p0(i64 4, ptr %22) #8
  call void @llvm.lifetime.end.p0(i64 224, ptr %21) #8
  call void @llvm.lifetime.end.p0(i64 64, ptr %20) #8
  %110 = load i32, ptr %10, align 4
  ret i32 %110
}