; Function Attrs: nounwind uwtable
define internal fastcc i32 @DeriveKeyMsg(ptr noundef nonnull readonly captures(none) %0, ptr noundef nonnull %1, ptr noundef %2, i32 noundef range(i32 0, 256) %3) unnamed_addr #0 {
  %5 = alloca [64 x i8], align 16
  %6 = alloca %union.Digest, align 16
  call void @llvm.lifetime.start.p0(i64 64, ptr nonnull %5) #11
  call void @llvm.lifetime.start.p0(i64 224, ptr nonnull %6) #11
  %trunc = trunc nuw i32 %3 to i8
  switch i8 %trunc, label %.thread8 [
    i8 4, label %7
    i8 5, label %20
  ]

7:                                                ; preds = %4
  %8 = getelementptr inbounds nuw i8, ptr %0, i64 176
  %9 = load ptr, ptr %8, align 16, !tbaa !43
  %10 = getelementptr inbounds nuw i8, ptr %0, i64 1204
  %11 = load i32, ptr %10, align 4, !tbaa !44
  %12 = call i32 @wc_InitSha256_ex(ptr noundef nonnull %6, ptr noundef %9, i32 noundef %11) #11
  %13 = icmp eq i32 %12, 0
  br i1 %13, label %14, label %.thread8

14:                                               ; preds = %7
  %15 = call i32 @wc_Sha256Update(ptr noundef nonnull %6, ptr noundef null, i32 noundef 0) #11
  %16 = icmp eq i32 %15, 0
  br i1 %16, label %17, label %19

17:                                               ; preds = %14
  %18 = call i32 @wc_Sha256Final(ptr noundef nonnull %6, ptr noundef nonnull %5) #11
  br label %19

19:                                               ; preds = %17, %14
  %.1 = phi i32 [ %18, %17 ], [ %15, %14 ]
  call void @wc_Sha256Free(ptr noundef nonnull %6) #11
  br label %33

20:                                               ; preds = %4
  %21 = getelementptr inbounds nuw i8, ptr %0, i64 176
  %22 = load ptr, ptr %21, align 16, !tbaa !43
  %23 = getelementptr inbounds nuw i8, ptr %0, i64 1204
  %24 = load i32, ptr %23, align 4, !tbaa !44
  %25 = call i32 @wc_InitSha384_ex(ptr noundef nonnull %6, ptr noundef %22, i32 noundef %24) #11
  %26 = icmp eq i32 %25, 0
  br i1 %26, label %27, label %.thread8

27:                                               ; preds = %20
  %28 = call i32 @wc_Sha384Update(ptr noundef nonnull %6, ptr noundef null, i32 noundef 0) #11
  %29 = icmp eq i32 %28, 0
  br i1 %29, label %30, label %32

30:                                               ; preds = %27
  %31 = call i32 @wc_Sha384Final(ptr noundef nonnull %6, ptr noundef nonnull %5) #11
  br label %32

32:                                               ; preds = %30, %27
  %.4 = phi i32 [ %31, %30 ], [ %28, %27 ]
  call void @wc_Sha384Free(ptr noundef nonnull %6) #11
  br label %33

33:                                               ; preds = %19, %32
  %.034.ph = phi i32 [ 48, %32 ], [ 32, %19 ]
  %.031.ph = phi i32 [ 7, %32 ], [ 6, %19 ]
  %.2.ph = phi i32 [ %.4, %32 ], [ %.1, %19 ]
  %.not = icmp eq i32 %.2.ph, 0
  br i1 %.not, label %34, label %.thread8

34:                                               ; preds = %33
  %35 = getelementptr inbounds nuw i8, ptr %0, i64 711
  %36 = load i8, ptr %35, align 1, !tbaa !51
  %cond = icmp eq i8 %36, 4
  br i1 %cond, label %37, label %.thread8

37:                                               ; preds = %34
  %38 = getelementptr i8, ptr %0, i64 176
  %.val = load ptr, ptr %38, align 16, !tbaa !43
  %39 = getelementptr i8, ptr %0, i64 1204
  %.val40 = load i32, ptr %39, align 4, !tbaa !44
  %40 = call i32 @wc_Tls13_HKDF_Expand_Label_ex(ptr noundef nonnull %1, i32 noundef range(i32 0, 49) %.034.ph, ptr noundef %2, i32 noundef range(i32 0, 49) %.034.ph, ptr noundef nonnull @tls13ProtocolLabel, i32 noundef 6, ptr noundef nonnull @derivedLabel, i32 noundef 7, ptr noundef nonnull %5, i32 noundef range(i32 0, 49) %.034.ph, i32 noundef range(i32 0, 8) %.031.ph, ptr noundef %.val, i32 noundef %.val40) #11
  br label %.thread8

.thread8:                                         ; preds = %7, %20, %4, %34, %33, %37
  %.032 = phi i32 [ %40, %37 ], [ %.2.ph, %33 ], [ -326, %34 ], [ -232, %4 ], [ %12, %7 ], [ %25, %20 ]
  call void @llvm.lifetime.end.p0(i64 224, ptr nonnull %6) #11
  call void @llvm.lifetime.end.p0(i64 64, ptr nonnull %5) #11
  ret i32 %.032
}